; Function Attrs: mustprogress uwtable
define dso_local void @_ZN12CVQualifiers18make_scalar_constsERSt6vectorIbSaIbEE(ptr nocapture noundef nonnull readonly align 8 dereferenceable(40) %0) local_unnamed_addr #4 align 2 personality ptr @__gxx_personality_v0 {
  %2 = tail call noundef zeroext i1 @_ZN9CGOptions14const_pointersEv()
  br i1 %2, label %.loopexit, label %.preheader

.preheader:                                       ; preds = %1
  %3 = getelementptr inbounds i8, ptr %0, i64 16
  %4 = getelementptr inbounds i8, ptr %0, i64 24
  %5 = load ptr, ptr %3, align 8
  %6 = load i32, ptr %4, align 8
  %7 = load ptr, ptr %0, align 8
  %8 = ptrtoint ptr %5 to i64
  %9 = ptrtoint ptr %7 to i64
  %10 = sub i64 %8, %9
  %11 = shl nsw i64 %10, 3
  %12 = zext i32 %6 to i64
  %13 = add nsw i64 %11, %12
  %14 = icmp ugt i64 %13, 1
  br i1 %14, label %.lr.ph, label %.loopexit

.lr.ph:                                           ; preds = %.preheader, %.lr.ph
  %15 = phi ptr [ %28, %.lr.ph ], [ %7, %.preheader ]
  %.04 = phi i64 [ %25, %.lr.ph ], [ 1, %.preheader ]
  %16 = sdiv i64 %.04, 64
  %17 = getelementptr inbounds i64, ptr %15, i64 %16
  %18 = and i64 %.04, -9223372036854775745
  %19 = icmp ugt i64 %18, -9223372036854775808
  %storemerge.idx.i.i.i.i.i = select i1 %19, i64 -8, i64 0
  %storemerge.i.i.i.i.i = getelementptr inbounds i8, ptr %17, i64 %storemerge.idx.i.i.i.i.i
  %20 = and i64 %.04, 63
  %21 = shl nuw i64 1, %20
  %22 = xor i64 %21, -1
  %23 = load i64, ptr %storemerge.i.i.i.i.i, align 8
  %24 = and i64 %23, %22
  store i64 %24, ptr %storemerge.i.i.i.i.i, align 8
  %25 = add nuw i64 %.04, 1
  %26 = load ptr, ptr %3, align 8
  %27 = load i32, ptr %4, align 8
  %28 = load ptr, ptr %0, align 8
  %29 = ptrtoint ptr %26 to i64
  %30 = ptrtoint ptr %28 to i64
  %31 = sub i64 %29, %30
  %32 = shl nsw i64 %31, 3
  %33 = zext i32 %27 to i64
  %34 = add nsw i64 %32, %33
  %35 = icmp ult i64 %25, %34
  br i1 %35, label %.lr.ph, label %.loopexit, !llvm.loop !12

.loopexit:                                        ; preds = %.lr.ph, %.preheader, %1
  ret void
}